; ModuleID = '36/1601.c'
source_filename = "36/1601.c"
target datalayout = "e-m:e-p270:32:32-p271:32:32-p272:64:64-i64:64-f80:128-n8:16:32:64-S128"
target triple = "x86_64-pc-linux-gnu"

@.str = private unnamed_addr constant [3 x i8] c"NO\00", align 1
@.str.1 = private unnamed_addr constant [4 x i8] c"YES\00", align 1

; Function Attrs: noinline nounwind uwtable
define dso_local i32 @main() #0 {
  %1 = alloca i32, align 4
  %2 = alloca [100 x i8], align 16
  %3 = alloca [100 x i8], align 16
  %4 = alloca [100 x i8], align 16
  %5 = alloca i8, align 1
  %6 = alloca i8, align 1
  %7 = alloca i32, align 4
  %8 = alloca i32, align 4
  %9 = alloca i32, align 4
  %10 = alloca i32, align 4
  %11 = alloca i32, align 4
  %12 = alloca i32, align 4
  store i32 0, i32* %1, align 4
  %13 = bitcast [100 x i8]* %3 to i8*
  call void @llvm.memset.p0i8.i64(i8* align 16 %13, i8 0, i64 100, i1 false)
  %14 = bitcast [100 x i8]* %4 to i8*
  call void @llvm.memset.p0i8.i64(i8* align 16 %14, i8 0, i64 100, i1 false)
  %15 = getelementptr inbounds [100 x i8], [100 x i8]* %2, i64 0, i64 0
  %16 = call i32 (i8*, ...) bitcast (i32 (...)* @gets to i32 (i8*, ...)*)(i8* %15)
  store i32 0, i32* %9, align 4
  br label %17

17:                                               ; preds = %32, %0
  %18 = load i32, i32* %9, align 4
  %19 = sext i32 %18 to i64
  %20 = getelementptr inbounds [100 x i8], [100 x i8]* %2, i64 0, i64 %19
  %21 = load i8, i8* %20, align 1
  %22 = sext i8 %21 to i32
  %23 = icmp ne i32 %22, 32
  br i1 %23, label %24, label %35

24:                                               ; preds = %17
  %25 = load i32, i32* %9, align 4
  %26 = sext i32 %25 to i64
  %27 = getelementptr inbounds [100 x i8], [100 x i8]* %2, i64 0, i64 %26
  %28 = load i8, i8* %27, align 1
  %29 = load i32, i32* %9, align 4
  %30 = sext i32 %29 to i64
  %31 = getelementptr inbounds [100 x i8], [100 x i8]* %3, i64 0, i64 %30
  store i8 %28, i8* %31, align 1
  br label %32

32:                                               ; preds = %24
  %33 = load i32, i32* %9, align 4
  %34 = add nsw i32 %33, 1
  store i32 %34, i32* %9, align 4
  br label %17

35:                                               ; preds = %17
  store i32 0, i32* %12, align 4
  %36 = load i32, i32* %9, align 4
  %37 = add nsw i32 %36, 1
  store i32 %37, i32* %11, align 4
  br label %38

38:                                               ; preds = %55, %35
  %39 = load i32, i32* %11, align 4
  %40 = sext i32 %39 to i64
  %41 = getelementptr inbounds [100 x i8], [100 x i8]* %2, i64 0, i64 %40
  %42 = load i8, i8* %41, align 1
  %43 = sext i8 %42 to i32
  %44 = icmp ne i32 %43, 0
  br i1 %44, label %45, label %58

45:                                               ; preds = %38
  %46 = load i32, i32* %11, align 4
  %47 = sext i32 %46 to i64
  %48 = getelementptr inbounds [100 x i8], [100 x i8]* %2, i64 0, i64 %47
  %49 = load i8, i8* %48, align 1
  %50 = load i32, i32* %12, align 4
  %51 = sext i32 %50 to i64
  %52 = getelementptr inbounds [100 x i8], [100 x i8]* %4, i64 0, i64 %51
  store i8 %49, i8* %52, align 1
  %53 = load i32, i32* %12, align 4
  %54 = add nsw i32 %53, 1
  store i32 %54, i32* %12, align 4
  br label %55

55:                                               ; preds = %45
  %56 = load i32, i32* %11, align 4
  %57 = add nsw i32 %56, 1
  store i32 %57, i32* %11, align 4
  br label %38

58:                                               ; preds = %38
  %59 = getelementptr inbounds [100 x i8], [100 x i8]* %3, i64 0, i64 0
  %60 = call i64 @strlen(i8* %59) #4
  %61 = trunc i64 %60 to i32
  store i32 %61, i32* %7, align 4
  %62 = getelementptr inbounds [100 x i8], [100 x i8]* %4, i64 0, i64 0
  %63 = call i64 @strlen(i8* %62) #4
  %64 = trunc i64 %63 to i32
  store i32 %64, i32* %8, align 4
  store i32 0, i32* %9, align 4
  br label %65

65:                                               ; preds = %113, %58
  %66 = load i32, i32* %9, align 4
  %67 = load i32, i32* %7, align 4
  %68 = icmp slt i32 %66, %67
  br i1 %68, label %69, label %116

69:                                               ; preds = %65
  store i32 0, i32* %10, align 4
  br label %70

70:                                               ; preds = %109, %69
  %71 = load i32, i32* %10, align 4
  %72 = load i32, i32* %7, align 4
  %73 = load i32, i32* %9, align 4
  %74 = sub nsw i32 %72, %73
  %75 = sub nsw i32 %74, 1
  %76 = icmp slt i32 %71, %75
  br i1 %76, label %77, label %112

77:                                               ; preds = %70
  %78 = load i32, i32* %10, align 4
  %79 = sext i32 %78 to i64
  %80 = getelementptr inbounds [100 x i8], [100 x i8]* %3, i64 0, i64 %79
  %81 = load i8, i8* %80, align 1
  %82 = sext i8 %81 to i32
  %83 = load i32, i32* %10, align 4
  %84 = add nsw i32 %83, 1
  %85 = sext i32 %84 to i64
  %86 = getelementptr inbounds [100 x i8], [100 x i8]* %3, i64 0, i64 %85
  %87 = load i8, i8* %86, align 1
  %88 = sext i8 %87 to i32
  %89 = icmp sgt i32 %82, %88
  br i1 %89, label %90, label %108

90:                                               ; preds = %77
  %91 = load i32, i32* %10, align 4
  %92 = sext i32 %91 to i64
  %93 = getelementptr inbounds [100 x i8], [100 x i8]* %3, i64 0, i64 %92
  %94 = load i8, i8* %93, align 1
  store i8 %94, i8* %5, align 1
  %95 = load i32, i32* %10, align 4
  %96 = add nsw i32 %95, 1
  %97 = sext i32 %96 to i64
  %98 = getelementptr inbounds [100 x i8], [100 x i8]* %3, i64 0, i64 %97
  %99 = load i8, i8* %98, align 1
  %100 = load i32, i32* %10, align 4
  %101 = sext i32 %100 to i64
  %102 = getelementptr inbounds [100 x i8], [100 x i8]* %3, i64 0, i64 %101
  store i8 %99, i8* %102, align 1
  %103 = load i8, i8* %5, align 1
  %104 = load i32, i32* %10, align 4
  %105 = add nsw i32 %104, 1
  %106 = sext i32 %105 to i64
  %107 = getelementptr inbounds [100 x i8], [100 x i8]* %3, i64 0, i64 %106
  store i8 %103, i8* %107, align 1
  br label %108

108:                                              ; preds = %90, %77
  br label %109

109:                                              ; preds = %108
  %110 = load i32, i32* %10, align 4
  %111 = add nsw i32 %110, 1
  store i32 %111, i32* %10, align 4
  br label %70

112:                                              ; preds = %70
  br label %113

113:                                              ; preds = %112
  %114 = load i32, i32* %9, align 4
  %115 = add nsw i32 %114, 1
  store i32 %115, i32* %9, align 4
  br label %65

116:                                              ; preds = %65
  store i32 0, i32* %9, align 4
  br label %117

117:                                              ; preds = %165, %116
  %118 = load i32, i32* %9, align 4
  %119 = load i32, i32* %8, align 4
  %120 = icmp slt i32 %118, %119
  br i1 %120, label %121, label %168

121:                                              ; preds = %117
  store i32 0, i32* %10, align 4
  br label %122

122:                                              ; preds = %161, %121
  %123 = load i32, i32* %10, align 4
  %124 = load i32, i32* %8, align 4
  %125 = load i32, i32* %9, align 4
  %126 = sub nsw i32 %124, %125
  %127 = sub nsw i32 %126, 1
  %128 = icmp slt i32 %123, %127
  br i1 %128, label %129, label %164

129:                                              ; preds = %122
  %130 = load i32, i32* %10, align 4
  %131 = sext i32 %130 to i64
  %132 = getelementptr inbounds [100 x i8], [100 x i8]* %4, i64 0, i64 %131
  %133 = load i8, i8* %132, align 1
  %134 = sext i8 %133 to i32
  %135 = load i32, i32* %10, align 4
  %136 = add nsw i32 %135, 1
  %137 = sext i32 %136 to i64
  %138 = getelementptr inbounds [100 x i8], [100 x i8]* %4, i64 0, i64 %137
  %139 = load i8, i8* %138, align 1
  %140 = sext i8 %139 to i32
  %141 = icmp sgt i32 %134, %140
  br i1 %141, label %142, label %160

142:                                              ; preds = %129
  %143 = load i32, i32* %10, align 4
  %144 = sext i32 %143 to i64
  %145 = getelementptr inbounds [100 x i8], [100 x i8]* %4, i64 0, i64 %144
  %146 = load i8, i8* %145, align 1
  store i8 %146, i8* %6, align 1
  %147 = load i32, i32* %10, align 4
  %148 = add nsw i32 %147, 1
  %149 = sext i32 %148 to i64
  %150 = getelementptr inbounds [100 x i8], [100 x i8]* %4, i64 0, i64 %149
  %151 = load i8, i8* %150, align 1
  %152 = load i32, i32* %10, align 4
  %153 = sext i32 %152 to i64
  %154 = getelementptr inbounds [100 x i8], [100 x i8]* %4, i64 0, i64 %153
  store i8 %151, i8* %154, align 1
  %155 = load i8, i8* %6, align 1
  %156 = load i32, i32* %10, align 4
  %157 = add nsw i32 %156, 1
  %158 = sext i32 %157 to i64
  %159 = getelementptr inbounds [100 x i8], [100 x i8]* %4, i64 0, i64 %158
  store i8 %155, i8* %159, align 1
  br label %160

160:                                              ; preds = %142, %129
  br label %161

161:                                              ; preds = %160
  %162 = load i32, i32* %10, align 4
  %163 = add nsw i32 %162, 1
  store i32 %163, i32* %10, align 4
  br label %122

164:                                              ; preds = %122
  br label %165

165:                                              ; preds = %164
  %166 = load i32, i32* %9, align 4
  %167 = add nsw i32 %166, 1
  store i32 %167, i32* %9, align 4
  br label %117

168:                                              ; preds = %117
  %169 = load i32, i32* %7, align 4
  %170 = load i32, i32* %8, align 4
  %171 = icmp ne i32 %169, %170
  br i1 %171, label %172, label %174

172:                                              ; preds = %168
  %173 = call i32 (i8*, ...) @printf(i8* getelementptr inbounds ([3 x i8], [3 x i8]* @.str, i64 0, i64 0))
  br label %184

174:                                              ; preds = %168
  %175 = getelementptr inbounds [100 x i8], [100 x i8]* %3, i64 0, i64 0
  %176 = getelementptr inbounds [100 x i8], [100 x i8]* %4, i64 0, i64 0
  %177 = call i32 @strcmp(i8* %175, i8* %176) #4
  %178 = icmp eq i32 %177, 0
  br i1 %178, label %179, label %181

179:                                              ; preds = %174
  %180 = call i32 (i8*, ...) @printf(i8* getelementptr inbounds ([4 x i8], [4 x i8]* @.str.1, i64 0, i64 0))
  br label %183

181:                                              ; preds = %174
  %182 = call i32 (i8*, ...) @printf(i8* getelementptr inbounds ([3 x i8], [3 x i8]* @.str, i64 0, i64 0))
  br label %183

183:                                              ; preds = %181, %179
  br label %184

184:                                              ; preds = %183, %172
  %185 = load i32, i32* %1, align 4
  ret i32 %185
}

; Function Attrs: argmemonly nounwind willreturn
declare void @llvm.memset.p0i8.i64(i8* nocapture writeonly, i8, i64, i1 immarg) #1

declare dso_local i32 @gets(...) #2

; Function Attrs: nounwind readonly
declare dso_local i64 @strlen(i8*) #3

declare dso_local i32 @printf(i8*, ...) #2

; Function Attrs: nounwind readonly
declare dso_local i32 @strcmp(i8*, i8*) #3


!llvm.module.flags = !{!0}
!llvm.ident = !{!1}

!0 = !{i32 1, !"wchar_size", i32 4}
!1 = !{!"clang version 10.0.0-4ubuntu1 "}
